; ModuleID = '17/1437.c'
source_filename = "17/1437.c"
target datalayout = "e-m:e-p270:32:32-p271:32:32-p272:64:64-i64:64-f80:128-n8:16:32:64-S128"
target triple = "x86_64-pc-linux-gnu"

%struct.bracket = type { [100 x i8], i32 }

@.str = private unnamed_addr constant [3 x i8] c"%d\00", align 1
@.str.1 = private unnamed_addr constant [3 x i8] c"%s\00", align 1
@.str.2 = private unnamed_addr constant [7 x i8] c"%s\0A%s\0A\00", align 1

; Function Attrs: noinline nounwind uwtable
define dso_local i32 @main() #0 {
  %1 = alloca i32, align 4
  %2 = alloca [100 x i8], align 16
  %3 = alloca [100 x i8], align 16
  %4 = alloca i32, align 4
  %5 = alloca i32, align 4
  %6 = alloca i32, align 4
  %7 = alloca %struct.bracket*, align 8
  %8 = alloca %struct.bracket*, align 8
  store i32 0, i32* %1, align 4
  %9 = bitcast [100 x i8]* %2 to i8*
  call void @llvm.memset.p0i8.i64(i8* align 16 %9, i8 0, i64 100, i1 false)
  %10 = bitcast [100 x i8]* %3 to i8*
  call void @llvm.memset.p0i8.i64(i8* align 16 %10, i8 0, i64 100, i1 false)
  %11 = call i32 (i8*, ...) @__isoc99_scanf(i8* getelementptr inbounds ([3 x i8], [3 x i8]* @.str, i64 0, i64 0), i32* %6)
  br label %12

12:                                               ; preds = %135, %0
  %13 = load i32, i32* %6, align 4
  %14 = icmp sgt i32 %13, 0
  br i1 %14, label %15, label %138

15:                                               ; preds = %12
  br label %16

16:                                               ; preds = %129, %15
  %17 = getelementptr inbounds [100 x i8], [100 x i8]* %2, i64 0, i64 0
  %18 = call i32 (i8*, ...) @__isoc99_scanf(i8* getelementptr inbounds ([3 x i8], [3 x i8]* @.str.1, i64 0, i64 0), i8* %17)
  %19 = icmp ne i32 %18, -1
  br i1 %19, label %20, label %135

20:                                               ; preds = %16
  %21 = call noalias i8* @malloc(i64 104) #5
  %22 = bitcast i8* %21 to %struct.bracket*
  store %struct.bracket* %22, %struct.bracket** %7, align 8
  %23 = call noalias i8* @malloc(i64 104) #5
  %24 = bitcast i8* %23 to %struct.bracket*
  store %struct.bracket* %24, %struct.bracket** %8, align 8
  %25 = load %struct.bracket*, %struct.bracket** %8, align 8
  %26 = getelementptr inbounds %struct.bracket, %struct.bracket* %25, i32 0, i32 1
  store i32 0, i32* %26, align 4
  %27 = load %struct.bracket*, %struct.bracket** %7, align 8
  %28 = getelementptr inbounds %struct.bracket, %struct.bracket* %27, i32 0, i32 1
  store i32 0, i32* %28, align 4
  %29 = getelementptr inbounds [100 x i8], [100 x i8]* %2, i64 0, i64 0
  %30 = call i64 @strlen(i8* %29) #6
  %31 = trunc i64 %30 to i32
  store i32 %31, i32* %5, align 4
  store i32 0, i32* %4, align 4
  br label %32

32:                                               ; preds = %81, %20
  %33 = load i32, i32* %4, align 4
  %34 = load i32, i32* %5, align 4
  %35 = icmp slt i32 %33, %34
  br i1 %35, label %36, label %84

36:                                               ; preds = %32
  %37 = load i32, i32* %4, align 4
  %38 = sext i32 %37 to i64
  %39 = getelementptr inbounds [100 x i8], [100 x i8]* %2, i64 0, i64 %38
  %40 = load i8, i8* %39, align 1
  %41 = sext i8 %40 to i32
  switch i32 %41, label %76 [
    i32 40, label %42
    i32 41, label %58
  ]

42:                                               ; preds = %36
  %43 = load i32, i32* %4, align 4
  %44 = sext i32 %43 to i64
  %45 = getelementptr inbounds [100 x i8], [100 x i8]* %2, i64 0, i64 %44
  %46 = load i8, i8* %45, align 1
  %47 = load %struct.bracket*, %struct.bracket** %7, align 8
  %48 = getelementptr inbounds %struct.bracket, %struct.bracket* %47, i32 0, i32 0
  %49 = load %struct.bracket*, %struct.bracket** %7, align 8
  %50 = getelementptr inbounds %struct.bracket, %struct.bracket* %49, i32 0, i32 1
  %51 = load i32, i32* %50, align 4
  %52 = add nsw i32 %51, 1
  store i32 %52, i32* %50, align 4
  %53 = sext i32 %51 to i64
  %54 = getelementptr inbounds [100 x i8], [100 x i8]* %48, i64 0, i64 %53
  store i8 %46, i8* %54, align 1
  %55 = load i32, i32* %4, align 4
  %56 = sext i32 %55 to i64
  %57 = getelementptr inbounds [100 x i8], [100 x i8]* %3, i64 0, i64 %56
  store i8 32, i8* %57, align 1
  br label %80

58:                                               ; preds = %36
  %59 = load %struct.bracket*, %struct.bracket** %7, align 8
  %60 = getelementptr inbounds %struct.bracket, %struct.bracket* %59, i32 0, i32 1
  %61 = load i32, i32* %60, align 4
  %62 = icmp sgt i32 %61, 0
  br i1 %62, label %63, label %71

63:                                               ; preds = %58
  %64 = load i32, i32* %4, align 4
  %65 = sext i32 %64 to i64
  %66 = getelementptr inbounds [100 x i8], [100 x i8]* %3, i64 0, i64 %65
  store i8 32, i8* %66, align 1
  %67 = load %struct.bracket*, %struct.bracket** %7, align 8
  %68 = getelementptr inbounds %struct.bracket, %struct.bracket* %67, i32 0, i32 1
  %69 = load i32, i32* %68, align 4
  %70 = sub nsw i32 %69, 1
  store i32 %70, i32* %68, align 4
  br label %75

71:                                               ; preds = %58
  %72 = load i32, i32* %4, align 4
  %73 = sext i32 %72 to i64
  %74 = getelementptr inbounds [100 x i8], [100 x i8]* %3, i64 0, i64 %73
  store i8 63, i8* %74, align 1
  br label %75

75:                                               ; preds = %71, %63
  br label %80

76:                                               ; preds = %36
  %77 = load i32, i32* %4, align 4
  %78 = sext i32 %77 to i64
  %79 = getelementptr inbounds [100 x i8], [100 x i8]* %3, i64 0, i64 %78
  store i8 32, i8* %79, align 1
  br label %80

80:                                               ; preds = %76, %75, %42
  br label %81

81:                                               ; preds = %80
  %82 = load i32, i32* %4, align 4
  %83 = add nsw i32 %82, 1
  store i32 %83, i32* %4, align 4
  br label %32

84:                                               ; preds = %32
  %85 = load i32, i32* %5, align 4
  %86 = sub nsw i32 %85, 1
  store i32 %86, i32* %4, align 4
  br label %87

87:                                               ; preds = %126, %84
  %88 = load i32, i32* %4, align 4
  %89 = icmp sge i32 %88, 0
  br i1 %89, label %90, label %129

90:                                               ; preds = %87
  %91 = load i32, i32* %4, align 4
  %92 = sext i32 %91 to i64
  %93 = getelementptr inbounds [100 x i8], [100 x i8]* %2, i64 0, i64 %92
  %94 = load i8, i8* %93, align 1
  %95 = sext i8 %94 to i32
  switch i32 %95, label %124 [
    i32 41, label %96
    i32 40, label %109
  ]

96:                                               ; preds = %90
  %97 = load i32, i32* %4, align 4
  %98 = sext i32 %97 to i64
  %99 = getelementptr inbounds [100 x i8], [100 x i8]* %2, i64 0, i64 %98
  %100 = load i8, i8* %99, align 1
  %101 = load %struct.bracket*, %struct.bracket** %8, align 8
  %102 = getelementptr inbounds %struct.bracket, %struct.bracket* %101, i32 0, i32 0
  %103 = load %struct.bracket*, %struct.bracket** %8, align 8
  %104 = getelementptr inbounds %struct.bracket, %struct.bracket* %103, i32 0, i32 1
  %105 = load i32, i32* %104, align 4
  %106 = add nsw i32 %105, 1
  store i32 %106, i32* %104, align 4
  %107 = sext i32 %105 to i64
  %108 = getelementptr inbounds [100 x i8], [100 x i8]* %102, i64 0, i64 %107
  store i8 %100, i8* %108, align 1
  br label %125

109:                                              ; preds = %90
  %110 = load %struct.bracket*, %struct.bracket** %8, align 8
  %111 = getelementptr inbounds %struct.bracket, %struct.bracket* %110, i32 0, i32 1
  %112 = load i32, i32* %111, align 4
  %113 = icmp sgt i32 %112, 0
  br i1 %113, label %114, label %119

114:                                              ; preds = %109
  %115 = load %struct.bracket*, %struct.bracket** %8, align 8
  %116 = getelementptr inbounds %struct.bracket, %struct.bracket* %115, i32 0, i32 1
  %117 = load i32, i32* %116, align 4
  %118 = sub nsw i32 %117, 1
  store i32 %118, i32* %116, align 4
  br label %123

119:                                              ; preds = %109
  %120 = load i32, i32* %4, align 4
  %121 = sext i32 %120 to i64
  %122 = getelementptr inbounds [100 x i8], [100 x i8]* %3, i64 0, i64 %121
  store i8 36, i8* %122, align 1
  br label %123

123:                                              ; preds = %119, %114
  br label %125

124:                                              ; preds = %90
  br label %125

125:                                              ; preds = %124, %123, %96
  br label %126

126:                                              ; preds = %125
  %127 = load i32, i32* %4, align 4
  %128 = add nsw i32 %127, -1
  store i32 %128, i32* %4, align 4
  br label %87

129:                                              ; preds = %87
  %130 = getelementptr inbounds [100 x i8], [100 x i8]* %2, i64 0, i64 0
  %131 = getelementptr inbounds [100 x i8], [100 x i8]* %3, i64 0, i64 0
  %132 = call i32 (i8*, ...) @printf(i8* getelementptr inbounds ([7 x i8], [7 x i8]* @.str.2, i64 0, i64 0), i8* %130, i8* %131)
  %133 = getelementptr inbounds [100 x i8], [100 x i8]* %2, i64 0, i64 0
  call void @llvm.memset.p0i8.i64(i8* align 16 %133, i8 0, i64 100, i1 false)
  %134 = getelementptr inbounds [100 x i8], [100 x i8]* %3, i64 0, i64 0
  call void @llvm.memset.p0i8.i64(i8* align 16 %134, i8 0, i64 100, i1 false)
  br label %16

135:                                              ; preds = %16
  %136 = load i32, i32* %6, align 4
  %137 = add nsw i32 %136, -1
  store i32 %137, i32* %6, align 4
  br label %12

138:                                              ; preds = %12
  ret i32 0
}

; Function Attrs: argmemonly nounwind willreturn
declare void @llvm.memset.p0i8.i64(i8* nocapture writeonly, i8, i64, i1 immarg) #1

declare dso_local i32 @__isoc99_scanf(i8*, ...) #2

; Function Attrs: nounwind
declare dso_local noalias i8* @malloc(i64) #3

; Function Attrs: nounwind readonly
declare dso_local i64 @strlen(i8*) #4

declare dso_local i32 @printf(i8*, ...) #2


!llvm.module.flags = !{!0}
!llvm.ident = !{!1}

!0 = !{i32 1, !"wchar_size", i32 4}
!1 = !{!"clang version 10.0.0-4ubuntu1 "}
